; Function Attrs: mustprogress noinline noreturn uwtable
define dso_local void @_ZNK4Luau16ConstraintSolver19throwTimeLimitErrorEv(ptr noundef nonnull align 8 dereferenceable(1032) %0) local_unnamed_addr #17 align 2 personality ptr @__gxx_personality_v0 {
  %2 = tail call ptr @__cxa_allocate_exception(i64 104) #34
  %3 = getelementptr inbounds nuw i8, ptr %0, i64 136
  invoke void @_ZN4Luau14TimeLimitErrorC2ERKNSt7__cxx1112basic_stringIcSt11char_traitsIcESaIcEEE(ptr noundef nonnull align 8 dereferenceable(100) %2, ptr noundef nonnull align 8 dereferenceable(32) %3)
          to label %4 unwind label %5

4:                                                ; preds = %1
  tail call void @__cxa_throw(ptr nonnull %2, ptr nonnull @_ZTIN4Luau14TimeLimitErrorE, ptr nonnull @_ZN4Luau21InternalCompilerErrorD2Ev) #36
  unreachable

5:                                                ; preds = %1
  %6 = landingpad { ptr, i32 }
          cleanup
  tail call void @__cxa_free_exception(ptr nonnull %2) #34
  resume { ptr, i32 } %6
}